; Function Attrs: mustprogress nofree norecurse nosync nounwind willreturn memory(readwrite, inaccessiblemem: none) uwtable
define dso_local void @_ZN4llvm17CanonicalLoopInfo12setTripCountEPNS_5ValueE(ptr noundef nonnull readonly align 8 captures(none) dereferenceable(32) %0, ptr noundef %1) local_unnamed_addr #10 align 2 {
  %3 = getelementptr inbounds nuw i8, ptr %0, i64 8
  %4 = load ptr, ptr %3, align 8
  %5 = getelementptr inbounds nuw i8, ptr %4, i64 56
  %6 = load ptr, ptr %5, align 8
  %7 = icmp eq ptr %6, null
  %8 = getelementptr inbounds i8, ptr %6, i64 -24
  %9 = select i1 %7, ptr null, ptr %8
  %10 = getelementptr inbounds nuw i8, ptr %9, i64 4
  %11 = load i32, ptr %10, align 4
  %12 = and i32 %11, 1073741824
  %.not.i.i.i = icmp eq i32 %12, 0
  br i1 %.not.i.i.i, label %16, label %13

13:                                               ; preds = %2
  %14 = getelementptr inbounds i8, ptr %9, i64 -8
  %15 = load ptr, ptr %14, align 8
  br label %_ZN4llvm4User14getOperandListEv.exit.i

16:                                               ; preds = %2
  %17 = and i32 %11, 134217727
  %18 = zext nneg i32 %17 to i64
  %19 = sub nsw i64 0, %18
  %20 = getelementptr inbounds %"class.llvm::Use", ptr %9, i64 %19
  br label %_ZN4llvm4User14getOperandListEv.exit.i

_ZN4llvm4User14getOperandListEv.exit.i:           ; preds = %16, %13
  %21 = phi ptr [ %15, %13 ], [ %20, %16 ]
  %22 = getelementptr inbounds nuw i8, ptr %21, i64 32
  %23 = load ptr, ptr %22, align 8
  %.not.i.i2.i = icmp eq ptr %23, null
  br i1 %.not.i.i2.i, label %_ZN4llvm3Use14removeFromListEv.exit.i.i.i, label %24

24:                                               ; preds = %_ZN4llvm4User14getOperandListEv.exit.i
  %25 = getelementptr inbounds nuw i8, ptr %21, i64 40
  %26 = load ptr, ptr %25, align 8
  %27 = getelementptr inbounds nuw i8, ptr %21, i64 48
  %28 = load ptr, ptr %27, align 8
  store ptr %26, ptr %28, align 8
  %.not.i.i.i.i = icmp eq ptr %26, null
  br i1 %.not.i.i.i.i, label %_ZN4llvm3Use14removeFromListEv.exit.i.i.i, label %29

29:                                               ; preds = %24
  %30 = load ptr, ptr %27, align 8
  %31 = getelementptr inbounds nuw i8, ptr %26, i64 16
  store ptr %30, ptr %31, align 8
  br label %_ZN4llvm3Use14removeFromListEv.exit.i.i.i

_ZN4llvm3Use14removeFromListEv.exit.i.i.i:        ; preds = %29, %24, %_ZN4llvm4User14getOperandListEv.exit.i
  store ptr %1, ptr %22, align 8
  %.not4.i.i.i = icmp eq ptr %1, null
  br i1 %.not4.i.i.i, label %_ZN4llvm4User10setOperandEjPNS_5ValueE.exit, label %32

32:                                               ; preds = %_ZN4llvm3Use14removeFromListEv.exit.i.i.i
  %33 = getelementptr inbounds nuw i8, ptr %1, i64 16
  %34 = load ptr, ptr %33, align 8
  %35 = getelementptr inbounds nuw i8, ptr %21, i64 40
  store ptr %34, ptr %35, align 8
  %.not.i.i.i.i.i = icmp eq ptr %34, null
  br i1 %.not.i.i.i.i.i, label %_ZN4llvm5Value6addUseERNS_3UseE.exit.i.i.i, label %36

36:                                               ; preds = %32
  %37 = getelementptr inbounds nuw i8, ptr %34, i64 16
  store ptr %35, ptr %37, align 8
  br label %_ZN4llvm5Value6addUseERNS_3UseE.exit.i.i.i

_ZN4llvm5Value6addUseERNS_3UseE.exit.i.i.i:       ; preds = %36, %32
  %38 = getelementptr inbounds nuw i8, ptr %21, i64 48
  store ptr %33, ptr %38, align 8
  store ptr %22, ptr %33, align 8
  br label %_ZN4llvm4User10setOperandEjPNS_5ValueE.exit

_ZN4llvm4User10setOperandEjPNS_5ValueE.exit:      ; preds = %_ZN4llvm3Use14removeFromListEv.exit.i.i.i, %_ZN4llvm5Value6addUseERNS_3UseE.exit.i.i.i
  ret void
}